(lp0
S'VW Jetta GLX'
p1
aS'Ferarri 308 GTB'
p2
aS'Lamboghini Miura'
p3
aS'Porsche Boxter S'
p4
aS'Olds 67 Cutlass'
p5
aS'Chevy Corvette Stingray'
p6
aS'Aston Martin D7'
p7
aS'Jaguar E-Type'
p8
aS'Alpha Romeo 33 Stradale'
p9
aS'Austin Healy BN7'
p10
aS'BMW Z8'
p11
aS'Buick Riviera'
p12
aS'Ford GT40'
p13
aS'Chevy Corvair'
p14
aS'Ferrari 360 Modena'
p15
aS'Ford Mustang GT Fastback Bullitt'
p16
aS'Porsche Cayman'
p17
a.